target datalayout = "e-m:e-p270:32:32-p271:32:32-p272:64:64-i64:64-i128:128-f80:128-n8:16:32:64-S128"
target triple = "x86_64-pc-linux-gnu"

%struct.rb_ractor_struct = type { %struct.rb_ractor_pub, %struct.rb_ractor_sync, i64, %union.pthread_cond_t, %struct.anon.17, i64, i64, i64, i32, %struct.ccan_list_node, ptr, ptr, i64, i64, i64, i64, i64, i64, ptr }
%struct.rb_ractor_pub = type { i64, i32, %struct.rb_hook_list_struct }
%struct.rb_hook_list_struct = type { ptr, i32, i32, i8, i8 }
%struct.rb_ractor_sync = type { %union.pthread_mutex_t, i8, i8, %struct.rb_ractor_queue, %struct.rb_ractor_queue, %struct.rb_ractor_basket, %struct.ractor_wait }
%union.pthread_mutex_t = type { %struct.__pthread_mutex_s }
%struct.__pthread_mutex_s = type { i32, i32, i32, i32, i32, i16, i16, %struct.__pthread_internal_list }
%struct.__pthread_internal_list = type { ptr, ptr }
%struct.rb_ractor_queue = type { ptr, i32, i32, i32, i32, i32 }
%struct.rb_ractor_basket = type { %union.anon.13, i64, %union.anon.14 }
%union.anon.13 = type { i32 }
%union.anon.14 = type { %struct.anon.15 }
%struct.anon.15 = type { i64, i8 }
%struct.ractor_wait = type { i32, i32, ptr }
%union.pthread_cond_t = type { %struct.__pthread_cond_s }
%struct.__pthread_cond_s = type { %union.__atomic_wide_counter, %union.__atomic_wide_counter, [2 x i32], [2 x i32], i32, i32, [2 x i32] }
%union.__atomic_wide_counter = type { i64 }
%struct.anon.17 = type { %struct.ccan_list_head, i32, i32, i32, %struct.rb_thread_sched, ptr, ptr }
%struct.ccan_list_head = type { %struct.ccan_list_node }
%struct.rb_thread_sched = type { %union.pthread_mutex_t, ptr, i8, i8, i8, %struct.ccan_list_head, i32, %struct.ccan_list_node }
%struct.ccan_list_node = type { ptr, ptr }
%struct.rb_thread_struct = type { %struct.ccan_list_node, i64, ptr, ptr, ptr, ptr, %struct.rb_thread_sched_item, i8, i32, i64, ptr, i64, i64, i8, i8, i32, ptr, i64, i64, i64, i64, %union.pthread_mutex_t, %struct.rb_unblock_callback, i64, ptr, %struct.ccan_list_head, ptr, %union.anon, i32, i64, ptr, i64, i32, i64, ptr, %struct.rb_ext_config }
%struct.rb_thread_sched_item = type { %struct.anon.8, %struct.rb_thread_sched_waiting, i8, i8, ptr, ptr }
%struct.anon.8 = type { %struct.ccan_list_node, %struct.ccan_list_node, %struct.ccan_list_node, %struct.ccan_list_node, %struct.ccan_list_node }
%struct.rb_thread_sched_waiting = type { i32, %struct.anon.9, %struct.ccan_list_node }
%struct.anon.9 = type { i64, i32, i32 }
%struct.rb_unblock_callback = type { ptr, ptr }
%union.anon = type { %struct.anon.10 }
%struct.anon.10 = type { i64, i64, i32 }
%struct.rb_ext_config = type { i8 }
%struct.rb_execution_context_struct = type { ptr, i64, ptr, ptr, i32, i32, ptr, ptr, ptr, i64, i64, i64, ptr, i64, ptr, i64, i64, i8, i8, i64, %struct.anon.7 }
%struct.anon.7 = type { ptr, ptr, i64, [1 x %struct.__jmp_buf_tag] }
%struct.__jmp_buf_tag = type { [8 x i64], i32, %struct.__sigset_t }
%struct.__sigset_t = type { [16 x i64] }
%struct.ractor_local_storage_store_data = type { ptr, ptr, i64, i64 }

; Function Attrs: inlinehint nounwind sspstrong uwtable
define internal ptr @rb_ec_thread_ptr(ptr noundef %0) #4 {
  %2 = alloca ptr, align 8
  store ptr %0, ptr %2, align 8, !tbaa !88
  %3 = load ptr, ptr %2, align 8, !tbaa !88
  %4 = getelementptr inbounds nuw %struct.rb_execution_context_struct, ptr %3, i32 0, i32 7
  %5 = load ptr, ptr %4, align 8, !tbaa !131
  ret ptr %5
}

; Function Attrs: inlinehint nounwind sspstrong uwtable
define internal ptr @rb_ec_ractor_ptr(ptr noundef %0) #4 {
  %2 = alloca ptr, align 8
  %3 = alloca ptr, align 8
  %4 = alloca ptr, align 8
  %5 = alloca i32, align 4
  store ptr %0, ptr %3, align 8, !tbaa !88
  call void @llvm.lifetime.start.p0(i64 8, ptr %4) #16
  %6 = load ptr, ptr %3, align 8, !tbaa !88
  %7 = call ptr @rb_ec_thread_ptr(ptr noundef %6)
  store ptr %7, ptr %4, align 8, !tbaa !46
  %8 = load ptr, ptr %4, align 8, !tbaa !46
  %9 = icmp ne ptr %8, null
  br i1 %9, label %10, label %14

10:                                               ; preds = %1
  %11 = load ptr, ptr %4, align 8, !tbaa !46
  %12 = getelementptr inbounds nuw %struct.rb_thread_struct, ptr %11, i32 0, i32 2
  %13 = load ptr, ptr %12, align 8, !tbaa !63
  store ptr %13, ptr %2, align 8
  store i32 1, ptr %5, align 4
  br label %15

14:                                               ; preds = %1
  store ptr null, ptr %2, align 8
  store i32 1, ptr %5, align 4
  br label %15

15:                                               ; preds = %14, %10
  call void @llvm.lifetime.end.p0(i64 8, ptr %4) #16
  %16 = load ptr, ptr %2, align 8
  ret ptr %16
}

; Function Attrs: nounwind sspstrong uwtable
define internal i64 @ractor_local_value_set(ptr noundef %0, i64 noundef %1, i64 noundef %2, i64 noundef %3) #0 {
  %5 = alloca ptr, align 8
  %6 = alloca i64, align 8
  %7 = alloca i64, align 8
  %8 = alloca i64, align 8
  %9 = alloca ptr, align 8
  %10 = alloca i64, align 8
  %11 = alloca ptr, align 8
  store ptr %0, ptr %5, align 8, !tbaa !88
  store i64 %1, ptr %6, align 8, !tbaa !16
  store i64 %2, ptr %7, align 8, !tbaa !16
  store i64 %3, ptr %8, align 8, !tbaa !16
  call void @llvm.lifetime.start.p0(i64 8, ptr %9) #16
  %12 = load ptr, ptr %5, align 8, !tbaa !88
  %13 = call ptr @rb_ec_ractor_ptr(ptr noundef %12)
  store ptr %13, ptr %9, align 8, !tbaa !7
  call void @llvm.lifetime.start.p0(i64 8, ptr %10) #16
  %14 = load i64, ptr %7, align 8, !tbaa !16
  %15 = call i64 @rb_to_symbol(i64 noundef %14)
  %16 = call i64 @rb_sym2id(i64 noundef %15)
  store i64 %16, ptr %10, align 8, !tbaa !16
  call void @llvm.lifetime.start.p0(i64 8, ptr %11) #16
  %17 = load ptr, ptr %9, align 8, !tbaa !7
  %18 = getelementptr inbounds nuw %struct.rb_ractor_struct, ptr %17, i32 0, i32 11
  %19 = load ptr, ptr %18, align 8, !tbaa !205
  store ptr %19, ptr %11, align 8, !tbaa !206
  %20 = load ptr, ptr %11, align 8, !tbaa !206
  %21 = icmp eq ptr %20, null
  br i1 %21, label %22, label %26

22:                                               ; preds = %4
  %23 = call ptr @rb_id_table_create(i64 noundef 2)
  %24 = load ptr, ptr %9, align 8, !tbaa !7
  %25 = getelementptr inbounds nuw %struct.rb_ractor_struct, ptr %24, i32 0, i32 11
  store ptr %23, ptr %25, align 8, !tbaa !205
  store ptr %23, ptr %11, align 8, !tbaa !206
  br label %26

26:                                               ; preds = %22, %4
  %27 = load ptr, ptr %11, align 8, !tbaa !206
  %28 = load i64, ptr %10, align 8, !tbaa !16
  %29 = load i64, ptr %8, align 8, !tbaa !16
  %30 = call i32 @rb_id_table_insert(ptr noundef %27, i64 noundef %28, i64 noundef %29)
  %31 = load i64, ptr %8, align 8, !tbaa !16
  call void @llvm.lifetime.end.p0(i64 8, ptr %11) #16
  call void @llvm.lifetime.end.p0(i64 8, ptr %10) #16
  call void @llvm.lifetime.end.p0(i64 8, ptr %9) #16
  ret i64 %31
}

; Function Attrs: nounwind sspstrong uwtable
define internal i64 @ractor_local_value_store_i(i64 noundef %0) #0 {
  %2 = alloca i64, align 8
  %3 = alloca i64, align 8
  %4 = alloca ptr, align 8
  store i64 %0, ptr %2, align 8, !tbaa !16
  call void @llvm.lifetime.start.p0(i64 8, ptr %3) #16
  call void @llvm.lifetime.start.p0(i64 8, ptr %4) #16
  %5 = load i64, ptr %2, align 8, !tbaa !16
  %6 = inttoptr i64 %5 to ptr
  store ptr %6, ptr %4, align 8, !tbaa !334
  %7 = load ptr, ptr %4, align 8, !tbaa !334
  %8 = getelementptr inbounds nuw %struct.ractor_local_storage_store_data, ptr %7, i32 0, i32 1
  %9 = load ptr, ptr %8, align 8, !tbaa !209
  %10 = load ptr, ptr %4, align 8, !tbaa !334
  %11 = getelementptr inbounds nuw %struct.ractor_local_storage_store_data, ptr %10, i32 0, i32 2
  %12 = load i64, ptr %11, align 8, !tbaa !210
  %13 = call i32 @rb_id_table_lookup(ptr noundef %9, i64 noundef %12, ptr noundef %3)
  %14 = icmp ne i32 %13, 0
  br i1 %14, label %15, label %16

15:                                               ; preds = %1
  br label %26

16:                                               ; preds = %1
  %17 = call i64 @rb_yield(i64 noundef 4)
  store i64 %17, ptr %3, align 8, !tbaa !16
  %18 = load ptr, ptr %4, align 8, !tbaa !334
  %19 = getelementptr inbounds nuw %struct.ractor_local_storage_store_data, ptr %18, i32 0, i32 0
  %20 = load ptr, ptr %19, align 8, !tbaa !207
  %21 = load ptr, ptr %4, align 8, !tbaa !334
  %22 = getelementptr inbounds nuw %struct.ractor_local_storage_store_data, ptr %21, i32 0, i32 3
  %23 = load i64, ptr %22, align 8, !tbaa !211
  %24 = load i64, ptr %3, align 8, !tbaa !16
  %25 = call i64 @ractor_local_value_set(ptr noundef %20, i64 noundef 4, i64 noundef %23, i64 noundef %24)
  br label %26

26:                                               ; preds = %16, %15
  %27 = load i64, ptr %3, align 8, !tbaa !16
  call void @llvm.lifetime.end.p0(i64 8, ptr %4) #16
  call void @llvm.lifetime.end.p0(i64 8, ptr %3) #16
  ret i64 %27
}