; Function Attrs: nounwind sspstrong uwtable
define internal i64 @ractor_local_value_store_i(i64 noundef %0) #0 {
  %2 = alloca i64, align 8
  call void @llvm.lifetime.start.p0(i64 8, ptr nonnull %2) #19
  %3 = inttoptr i64 %0 to ptr
  %4 = getelementptr inbounds nuw i8, ptr %3, i64 8
  %5 = load ptr, ptr %4, align 8, !tbaa !222
  %6 = getelementptr inbounds nuw i8, ptr %3, i64 16
  %7 = load i64, ptr %6, align 8, !tbaa !223
  %8 = call i32 @rb_id_table_lookup(ptr noundef %5, i64 noundef %7, ptr noundef nonnull %2) #19
  %.not = icmp eq i32 %8, 0
  br i1 %.not, label %9, label %26

9:                                                ; preds = %1
  %10 = call i64 @rb_yield(i64 noundef 4) #19
  store i64 %10, ptr %2, align 8, !tbaa !80
  %11 = load ptr, ptr %3, align 8, !tbaa !220
  %12 = getelementptr inbounds nuw i8, ptr %3, i64 24
  %13 = load i64, ptr %12, align 8, !tbaa !224
  %14 = getelementptr i8, ptr %11, i64 48
  %.val.i = load ptr, ptr %14, align 8, !tbaa !90
  %.not.i.i = icmp eq ptr %.val.i, null
  br i1 %.not.i.i, label %rb_ec_ractor_ptr.exit.i, label %15

15:                                               ; preds = %9
  %16 = getelementptr inbounds nuw i8, ptr %.val.i, i64 24
  %17 = load ptr, ptr %16, align 8, !tbaa !57
  br label %rb_ec_ractor_ptr.exit.i

rb_ec_ractor_ptr.exit.i:                          ; preds = %15, %9
  %.0.i.i = phi ptr [ %17, %15 ], [ null, %9 ]
  %18 = call i64 @rb_to_symbol(i64 noundef %13) #19
  %19 = call i64 @rb_sym2id(i64 noundef %18) #19
  %20 = getelementptr inbounds nuw i8, ptr %.0.i.i, i64 456
  %21 = load ptr, ptr %20, align 8, !tbaa !219
  %22 = icmp eq ptr %21, null
  br i1 %22, label %23, label %ractor_local_value_set.exit

23:                                               ; preds = %rb_ec_ractor_ptr.exit.i
  %24 = call ptr @rb_id_table_create(i64 noundef 2) #19
  store ptr %24, ptr %20, align 8, !tbaa !219
  br label %ractor_local_value_set.exit

ractor_local_value_set.exit:                      ; preds = %rb_ec_ractor_ptr.exit.i, %23
  %.0.i = phi ptr [ %24, %23 ], [ %21, %rb_ec_ractor_ptr.exit.i ]
  %25 = call i32 @rb_id_table_insert(ptr noundef %.0.i, i64 noundef %19, i64 noundef %10) #19
  br label %26

26:                                               ; preds = %1, %ractor_local_value_set.exit
  %27 = load i64, ptr %2, align 8, !tbaa !80
  call void @llvm.lifetime.end.p0(i64 8, ptr nonnull %2) #19
  ret i64 %27
}